target datalayout = "e-m:e-p270:32:32-p271:32:32-p272:64:64-i64:64-i128:128-f80:128-n8:16:32:64-S128"
target triple = "x86_64-unknown-linux-gnu"

%"class.icu_75::RegexPattern" = type { %"class.icu_75::UObject", ptr, ptr, i32, ptr, %"class.icu_75::UnicodeString", ptr, ptr, i32, i32, i32, i32, ptr, i32, i32, i32, ptr, i32, ptr, i8, ptr }
%"class.icu_75::UObject" = type { ptr }
%"class.icu_75::UnicodeString" = type { %"class.icu_75::Replaceable", %"union.icu_75::UnicodeString::StackBufferOrFields" }
%"class.icu_75::Replaceable" = type { %"class.icu_75::UObject" }
%"union.icu_75::UnicodeString::StackBufferOrFields" = type { %struct.anon.0, [32 x i8] }
%struct.anon.0 = type { i16, i32, i32, ptr }
%"class.icu_75::RegexMatcher" = type { %"class.icu_75::UObject", ptr, ptr, ptr, ptr, ptr, i64, i32, i64, i64, i64, i64, i64, i64, i64, i64, i8, i8, i8, i64, i64, i64, i64, i8, i8, ptr, ptr, ptr, [8 x i64], i32, i32, i32, i32, ptr, ptr, ptr, ptr, i8, i8, i32, ptr, ptr }

; Function Attrs: mustprogress nounwind uwtable
define internal noundef signext i8 @_ZL9U_FAILURE10UErrorCode(i32 noundef %code) #0 {
entry:
  %code.addr = alloca i32, align 4
  store i32 %code, ptr %code.addr, align 4
  %0 = load i32, ptr %code.addr, align 4
  %cmp = icmp sgt i32 %0, 0
  %conv = zext i1 %cmp to i8
  ret i8 %conv
}

; Function Attrs: mustprogress uwtable
define noundef ptr @_ZNK6icu_7512RegexPattern7matcherER10UErrorCode(ptr noundef nonnull align 8 dereferenceable(200) %this, ptr noundef nonnull align 4 dereferenceable(4) %status) unnamed_addr #1 align 2 personality ptr @__gxx_personality_v0 {
entry:
  %retval = alloca ptr, align 8
  %this.addr = alloca ptr, align 8
  %status.addr = alloca ptr, align 8
  %retMatcher = alloca ptr, align 8
  %saved-rvalue = alloca ptr, align 8
  %cleanup.cond = alloca i1, align 1
  %exn.slot = alloca ptr, align 8
  %ehselector.slot = alloca i32, align 4
  store ptr %this, ptr %this.addr, align 8
  store ptr %status, ptr %status.addr, align 8
  %this1 = load ptr, ptr %this.addr, align 8
  store ptr null, ptr %retMatcher, align 8
  %0 = load ptr, ptr %status.addr, align 8
  %1 = load i32, ptr %0, align 4
  %call = call noundef signext i8 @_ZL9U_FAILURE10UErrorCode(i32 noundef %1)
  %tobool = icmp ne i8 %call, 0
  br i1 %tobool, label %if.then, label %if.end

if.then:                                          ; preds = %entry
  store ptr null, ptr %retval, align 8
  br label %return

if.end:                                           ; preds = %entry
  %fDeferredStatus = getelementptr inbounds %"class.icu_75::RegexPattern", ptr %this1, i32 0, i32 8
  %2 = load i32, ptr %fDeferredStatus, align 8
  %call2 = call noundef signext i8 @_ZL9U_FAILURE10UErrorCode(i32 noundef %2)
  %tobool3 = icmp ne i8 %call2, 0
  br i1 %tobool3, label %if.then4, label %if.end6

if.then4:                                         ; preds = %if.end
  %fDeferredStatus5 = getelementptr inbounds %"class.icu_75::RegexPattern", ptr %this1, i32 0, i32 8
  %3 = load i32, ptr %fDeferredStatus5, align 8
  %4 = load ptr, ptr %status.addr, align 8
  store i32 %3, ptr %4, align 4
  store ptr null, ptr %retval, align 8
  br label %return

if.end6:                                          ; preds = %if.end
  %call7 = call noundef ptr @_ZN6icu_757UMemorynwEm(i64 noundef 336) #9
  %new.isnull = icmp eq ptr %call7, null
  store i1 false, ptr %cleanup.cond, align 1
  br i1 %new.isnull, label %new.cont, label %new.notnull

new.notnull:                                      ; preds = %if.end6
  store ptr %call7, ptr %saved-rvalue, align 8
  store i1 true, ptr %cleanup.cond, align 1
  invoke void @_ZN6icu_7512RegexMatcherC1EPKNS_12RegexPatternE(ptr noundef nonnull align 8 dereferenceable(336) %call7, ptr noundef %this1)
          to label %invoke.cont unwind label %lpad

invoke.cont:                                      ; preds = %new.notnull
  br label %new.cont

new.cont:                                         ; preds = %invoke.cont, %if.end6
  %5 = phi ptr [ %call7, %invoke.cont ], [ null, %if.end6 ]
  store ptr %5, ptr %retMatcher, align 8
  %6 = load ptr, ptr %retMatcher, align 8
  %cmp = icmp eq ptr %6, null
  br i1 %cmp, label %if.then8, label %if.end9

if.then8:                                         ; preds = %new.cont
  %7 = load ptr, ptr %status.addr, align 8
  store i32 7, ptr %7, align 4
  store ptr null, ptr %retval, align 8
  br label %return

lpad:                                             ; preds = %new.notnull
  %8 = landingpad { ptr, i32 }
          cleanup
  %9 = extractvalue { ptr, i32 } %8, 0
  store ptr %9, ptr %exn.slot, align 8
  %10 = extractvalue { ptr, i32 } %8, 1
  store i32 %10, ptr %ehselector.slot, align 4
  %cleanup.is_active = load i1, ptr %cleanup.cond, align 1
  br i1 %cleanup.is_active, label %cleanup.action, label %cleanup.done

cleanup.action:                                   ; preds = %lpad
  %11 = load ptr, ptr %saved-rvalue, align 8
  call void @_ZN6icu_757UMemorydlEPv(ptr noundef %11) #9
  br label %cleanup.done

cleanup.done:                                     ; preds = %cleanup.action, %lpad
  br label %eh.resume

if.end9:                                          ; preds = %new.cont
  %12 = load ptr, ptr %retMatcher, align 8
  store ptr %12, ptr %retval, align 8
  br label %return

return:                                           ; preds = %if.end9, %if.then8, %if.then4, %if.then
  %13 = load ptr, ptr %retval, align 8
  ret ptr %13

eh.resume:                                        ; preds = %cleanup.done
  %exn = load ptr, ptr %exn.slot, align 8
  %sel = load i32, ptr %ehselector.slot, align 4
  %lpad.val = insertvalue { ptr, i32 } poison, ptr %exn, 0
  %lpad.val10 = insertvalue { ptr, i32 } %lpad.val, i32 %sel, 1
  resume { ptr, i32 } %lpad.val10
}

; Function Attrs: mustprogress uwtable
define noundef ptr @_ZNK6icu_7512RegexPattern7matcherERKNS_13UnicodeStringER10UErrorCode(ptr noundef nonnull align 8 dereferenceable(200) %this, ptr noundef nonnull align 8 dereferenceable(64) %input, ptr noundef nonnull align 4 dereferenceable(4) %status) unnamed_addr #1 align 2 {
entry:
  %this.addr = alloca ptr, align 8
  %input.addr = alloca ptr, align 8
  %status.addr = alloca ptr, align 8
  %retMatcher = alloca ptr, align 8
  store ptr %this, ptr %this.addr, align 8
  store ptr %input, ptr %input.addr, align 8
  store ptr %status, ptr %status.addr, align 8
  %this1 = load ptr, ptr %this.addr, align 8
  %0 = load ptr, ptr %status.addr, align 8
  %call = call noundef ptr @_ZNK6icu_7512RegexPattern7matcherER10UErrorCode(ptr noundef nonnull align 8 dereferenceable(200) %this1, ptr noundef nonnull align 4 dereferenceable(4) %0)
  store ptr %call, ptr %retMatcher, align 8
  %1 = load ptr, ptr %retMatcher, align 8
  %cmp = icmp ne ptr %1, null
  br i1 %cmp, label %if.then, label %if.end

if.then:                                          ; preds = %entry
  %2 = load ptr, ptr %status.addr, align 8
  %3 = load i32, ptr %2, align 4
  %4 = load ptr, ptr %retMatcher, align 8
  %fDeferredStatus = getelementptr inbounds %"class.icu_75::RegexMatcher", ptr %4, i32 0, i32 39
  store i32 %3, ptr %fDeferredStatus, align 4
  %5 = load ptr, ptr %retMatcher, align 8
  %6 = load ptr, ptr %input.addr, align 8
  %call2 = call noundef nonnull align 8 dereferenceable(336) ptr @_ZN6icu_7512RegexMatcher5resetERKNS_13UnicodeStringE(ptr noundef nonnull align 8 dereferenceable(336) %5, ptr noundef nonnull align 8 dereferenceable(64) %6)
  br label %if.end

if.end:                                           ; preds = %if.then, %entry
  %7 = load ptr, ptr %retMatcher, align 8
  ret ptr %7
}