; Function Attrs: mustprogress uwtable
define noundef ptr @_ZNK6icu_7512RegexPattern7matcherERKNS_13UnicodeStringER10UErrorCode(ptr noundef nonnull align 8 dereferenceable(200) %this, ptr noundef nonnull align 8 dereferenceable(64) %input, ptr nocapture noundef nonnull align 4 dereferenceable(4) %status) unnamed_addr #1 align 2 personality ptr @__gxx_personality_v0 {
entry:
  %0 = load i32, ptr %status, align 4
  %cmp.i.i = icmp slt i32 %0, 1
  br i1 %cmp.i.i, label %if.end.i, label %if.end

if.end.i:                                         ; preds = %entry
  %fDeferredStatus.i = getelementptr inbounds i8, ptr %this, i64 120
  %1 = load i32, ptr %fDeferredStatus.i, align 8
  %cmp.i4.i = icmp slt i32 %1, 1
  br i1 %cmp.i4.i, label %if.end6.i, label %return.sink.split.i

if.end6.i:                                        ; preds = %if.end.i
  %call7.i = tail call noundef ptr @_ZN6icu_757UMemorynwEm(i64 noundef 336) #11
  %new.isnull.i = icmp eq ptr %call7.i, null
  br i1 %new.isnull.i, label %return.sink.split.i, label %new.notnull.i

new.notnull.i:                                    ; preds = %if.end6.i
  invoke void @_ZN6icu_7512RegexMatcherC1EPKNS_12RegexPatternE(ptr noundef nonnull align 8 dereferenceable(336) %call7.i, ptr noundef nonnull %this)
          to label %if.then unwind label %lpad.i

lpad.i:                                           ; preds = %new.notnull.i
  %2 = landingpad { ptr, i32 }
          cleanup
  tail call void @_ZN6icu_757UMemorydlEPv(ptr noundef nonnull %call7.i) #11
  resume { ptr, i32 } %2

return.sink.split.i:                              ; preds = %if.end6.i, %if.end.i
  %.sink.i = phi i32 [ %1, %if.end.i ], [ 7, %if.end6.i ]
  store i32 %.sink.i, ptr %status, align 4
  br label %if.end

if.then:                                          ; preds = %new.notnull.i
  %3 = load i32, ptr %status, align 4
  %fDeferredStatus = getelementptr inbounds i8, ptr %call7.i, i64 316
  store i32 %3, ptr %fDeferredStatus, align 4
  %call2 = tail call noundef nonnull align 8 dereferenceable(336) ptr @_ZN6icu_7512RegexMatcher5resetERKNS_13UnicodeStringE(ptr noundef nonnull align 8 dereferenceable(336) %call7.i, ptr noundef nonnull align 8 dereferenceable(64) %input)
  br label %if.end

if.end:                                           ; preds = %return.sink.split.i, %entry, %if.then
  %retval.0.i7 = phi ptr [ %call7.i, %if.then ], [ null, %entry ], [ null, %return.sink.split.i ]
  ret ptr %retval.0.i7
}